target datalayout = "e-m:e-p270:32:32-p271:32:32-p272:64:64-i64:64-i128:128-f80:128-n8:16:32:64-S128"
target triple = "x86_64-pc-linux-gnu"

%"class.std::vector" = type { %"struct.std::_Vector_base" }
%"struct.std::_Vector_base" = type { %"struct.std::_Vector_base<long, std::allocator<long>>::_Vector_impl" }
%"struct.std::_Vector_base<long, std::allocator<long>>::_Vector_impl" = type { %"struct.std::_Vector_base<long, std::allocator<long>>::_Vector_impl_data" }
%"struct.std::_Vector_base<long, std::allocator<long>>::_Vector_impl_data" = type { ptr, ptr, ptr }
%"struct.faiss::Index" = type <{ ptr, i32, [4 x i8], i64, i8, i8, [2 x i8], i32, float, [4 x i8] }>
%"struct.faiss::IndexIVF" = type <{ %"struct.faiss::Index.base", [4 x i8], %"struct.faiss::IndexIVFInterface", ptr, i8, [7 x i8], i64, i32, i32, %"struct.faiss::DirectMap", i8, [7 x i8] }>
%"struct.faiss::Index.base" = type <{ ptr, i32, [4 x i8], i64, i8, i8, [2 x i8], i32, float }>
%"struct.faiss::IndexIVFInterface" = type { ptr, %"struct.faiss::Level1Quantizer", i64, i64 }
%"struct.faiss::Level1Quantizer" = type { ptr, i64, i8, i8, [6 x i8], %"struct.faiss::ClusteringParameters", ptr }
%"struct.faiss::ClusteringParameters" = type <{ i32, i32, i8, i8, i8, i8, i8, [3 x i8], i32, i32, i32, [4 x i8], i64, i8, i8, [6 x i8] }>
%"struct.faiss::DirectMap" = type { i32, %"class.std::vector", %"class.std::unordered_map" }
%"class.std::unordered_map" = type { %"class.std::_Hashtable" }
%"class.std::_Hashtable" = type { ptr, i64, %"struct.std::__detail::_Hash_node_base", i64, %"struct.std::__detail::_Prime_rehash_policy", ptr }
%"struct.std::__detail::_Hash_node_base" = type { ptr }
%"struct.std::__detail::_Prime_rehash_policy" = type { float, i64 }
%"struct.faiss::DirectMapAdd" = type { ptr, i32, i64, i64, ptr, %"class.std::vector" }

; Function Attrs: mustprogress nounwind uwtable
define noundef i64 @_ZNK5faiss15Level1Quantizer16coarse_code_sizeEv(ptr noundef nonnull align 8 dereferenceable(80) %0) #1 align 2 {
  %2 = alloca ptr, align 8
  %3 = alloca i64, align 8
  %4 = alloca i64, align 8
  store ptr %0, ptr %2, align 8, !tbaa !134
  %5 = load ptr, ptr %2, align 8
  call void @llvm.lifetime.start.p0(i64 8, ptr %3) #20
  %6 = getelementptr inbounds nuw %"struct.faiss::Level1Quantizer", ptr %5, i32 0, i32 1
  %7 = load i64, ptr %6, align 8, !tbaa !102
  %8 = sub i64 %7, 1
  store i64 %8, ptr %3, align 8, !tbaa !9
  call void @llvm.lifetime.start.p0(i64 8, ptr %4) #20
  store i64 0, ptr %4, align 8, !tbaa !9
  br label %9

9:                                                ; preds = %12, %1
  %10 = load i64, ptr %3, align 8, !tbaa !9
  %11 = icmp ugt i64 %10, 0
  br i1 %11, label %12, label %17

12:                                               ; preds = %9
  %13 = load i64, ptr %4, align 8, !tbaa !9
  %14 = add i64 %13, 1
  store i64 %14, ptr %4, align 8, !tbaa !9
  %15 = load i64, ptr %3, align 8, !tbaa !9
  %16 = lshr i64 %15, 8
  store i64 %16, ptr %3, align 8, !tbaa !9
  br label %9, !llvm.loop !221

17:                                               ; preds = %9
  %18 = load i64, ptr %4, align 8, !tbaa !9
  call void @llvm.lifetime.end.p0(i64 8, ptr %4) #20
  call void @llvm.lifetime.end.p0(i64 8, ptr %3) #20
  ret i64 %18
}

; Function Attrs: mustprogress uwtable
define void @_ZN5faiss8IndexIVF12add_sa_codesElPKhPKl(ptr noundef nonnull align 8 dereferenceable(265) %0, i64 noundef %1, ptr noundef %2, ptr noundef %3) unnamed_addr #0 align 2 personality ptr @__gxx_personality_v0 {
  %5 = alloca ptr, align 8
  %6 = alloca i64, align 8
  %7 = alloca ptr, align 8
  %8 = alloca ptr, align 8
  %9 = alloca i64, align 8
  %10 = alloca %"struct.faiss::DirectMapAdd", align 8
  %11 = alloca i64, align 8
  %12 = alloca ptr, align 8
  %13 = alloca i64, align 8
  %14 = alloca ptr, align 8
  %15 = alloca i32, align 4
  %16 = alloca i64, align 8
  %17 = alloca i64, align 8
  store ptr %0, ptr %5, align 8, !tbaa !45
  store i64 %1, ptr %6, align 8, !tbaa !9
  store ptr %2, ptr %7, align 8, !tbaa !11
  store ptr %3, ptr %8, align 8, !tbaa !13
  %18 = load ptr, ptr %5, align 8
  call void @llvm.lifetime.start.p0(i64 8, ptr %9) #20
  %19 = getelementptr inbounds i8, ptr %18, i64 48
  %20 = call noundef i64 @_ZNK5faiss15Level1Quantizer16coarse_code_sizeEv(ptr noundef nonnull align 8 dereferenceable(80) %19)
  store i64 %20, ptr %9, align 8, !tbaa !9
  call void @llvm.lifetime.start.p0(i64 64, ptr %10) #20
  %21 = getelementptr inbounds nuw %"struct.faiss::IndexIVF", ptr %18, i32 0, i32 9
  %22 = load i64, ptr %6, align 8, !tbaa !9
  %23 = load ptr, ptr %8, align 8, !tbaa !13
  call void @_ZN5faiss12DirectMapAddC1ERNS_9DirectMapEmPKl(ptr noundef nonnull align 8 dereferenceable(64) %10, ptr noundef nonnull align 8 dereferenceable(88) %21, i64 noundef %22, ptr noundef %23)
  call void @llvm.lifetime.start.p0(i64 8, ptr %11) #20
  store i64 0, ptr %11, align 8, !tbaa !9
  br label %24

24:                                               ; preds = %72, %4
  %25 = load i64, ptr %11, align 8, !tbaa !9
  %26 = load i64, ptr %6, align 8, !tbaa !9
  %27 = icmp slt i64 %25, %26
  br i1 %27, label %29, label %28

28:                                               ; preds = %24
  call void @llvm.lifetime.end.p0(i64 8, ptr %11) #20
  br label %84

29:                                               ; preds = %24
  call void @llvm.lifetime.start.p0(i64 8, ptr %12) #20
  %30 = load ptr, ptr %7, align 8, !tbaa !11
  %31 = getelementptr inbounds nuw %"struct.faiss::IndexIVF", ptr %18, i32 0, i32 6
  %32 = load i64, ptr %31, align 8, !tbaa !105
  %33 = load i64, ptr %9, align 8, !tbaa !9
  %34 = add i64 %32, %33
  %35 = load i64, ptr %11, align 8, !tbaa !9
  %36 = mul i64 %34, %35
  %37 = getelementptr inbounds nuw i8, ptr %30, i64 %36
  store ptr %37, ptr %12, align 8, !tbaa !11
  call void @llvm.lifetime.start.p0(i64 8, ptr %13) #20
  %38 = getelementptr inbounds i8, ptr %18, i64 48
  %39 = load ptr, ptr %12, align 8, !tbaa !11
  %40 = invoke noundef i64 @_ZNK5faiss15Level1Quantizer13decode_listnoEPKh(ptr noundef nonnull align 8 dereferenceable(80) %38, ptr noundef %39)
          to label %41 unwind label %75

41:                                               ; preds = %29
  store i64 %40, ptr %13, align 8, !tbaa !9
  call void @llvm.lifetime.start.p0(i64 8, ptr %16) #20
  %42 = load ptr, ptr %8, align 8, !tbaa !13
  %43 = icmp ne ptr %42, null
  br i1 %43, label %44, label %49

44:                                               ; preds = %41
  %45 = load ptr, ptr %8, align 8, !tbaa !13
  %46 = load i64, ptr %11, align 8, !tbaa !9
  %47 = getelementptr inbounds i64, ptr %45, i64 %46
  %48 = load i64, ptr %47, align 8, !tbaa !9
  br label %54

49:                                               ; preds = %41
  %50 = getelementptr inbounds nuw %"struct.faiss::Index", ptr %18, i32 0, i32 3
  %51 = load i64, ptr %50, align 8, !tbaa !100
  %52 = load i64, ptr %11, align 8, !tbaa !9
  %53 = add nsw i64 %51, %52
  br label %54

54:                                               ; preds = %49, %44
  %55 = phi i64 [ %48, %44 ], [ %53, %49 ]
  store i64 %55, ptr %16, align 8, !tbaa !9
  call void @llvm.lifetime.start.p0(i64 8, ptr %17) #20
  %56 = getelementptr inbounds nuw %"struct.faiss::IndexIVF", ptr %18, i32 0, i32 3
  %57 = load ptr, ptr %56, align 8, !tbaa !98
  %58 = load i64, ptr %13, align 8, !tbaa !9
  %59 = load i64, ptr %16, align 8, !tbaa !9
  %60 = load ptr, ptr %12, align 8, !tbaa !11
  %61 = load i64, ptr %9, align 8, !tbaa !9
  %62 = getelementptr inbounds nuw i8, ptr %60, i64 %61
  %63 = load ptr, ptr %57, align 8, !tbaa !23
  %64 = getelementptr inbounds ptr, ptr %63, i64 12
  %65 = load ptr, ptr %64, align 8
  %66 = invoke noundef i64 %65(ptr noundef nonnull align 8 dereferenceable(25) %57, i64 noundef %58, i64 noundef %59, ptr noundef %62, ptr noundef null)
          to label %67 unwind label %79

67:                                               ; preds = %54
  store i64 %66, ptr %17, align 8, !tbaa !9
  %68 = load i64, ptr %11, align 8, !tbaa !9
  %69 = load i64, ptr %13, align 8, !tbaa !9
  %70 = load i64, ptr %17, align 8, !tbaa !9
  invoke void @_ZN5faiss12DirectMapAdd3addEmlm(ptr noundef nonnull align 8 dereferenceable(64) %10, i64 noundef %68, i64 noundef %69, i64 noundef %70)
          to label %71 unwind label %79

71:                                               ; preds = %67
  call void @llvm.lifetime.end.p0(i64 8, ptr %17) #20
  call void @llvm.lifetime.end.p0(i64 8, ptr %16) #20
  call void @llvm.lifetime.end.p0(i64 8, ptr %13) #20
  call void @llvm.lifetime.end.p0(i64 8, ptr %12) #20
  br label %72

72:                                               ; preds = %71
  %73 = load i64, ptr %11, align 8, !tbaa !9
  %74 = add nsw i64 %73, 1
  store i64 %74, ptr %11, align 8, !tbaa !9
  br label %24, !llvm.loop !108

75:                                               ; preds = %29
  %76 = landingpad { ptr, i32 }
          cleanup
  %77 = extractvalue { ptr, i32 } %76, 0
  store ptr %77, ptr %14, align 8
  %78 = extractvalue { ptr, i32 } %76, 1
  store i32 %78, ptr %15, align 4
  br label %83

79:                                               ; preds = %67, %54
  %80 = landingpad { ptr, i32 }
          cleanup
  %81 = extractvalue { ptr, i32 } %80, 0
  store ptr %81, ptr %14, align 8
  %82 = extractvalue { ptr, i32 } %80, 1
  store i32 %82, ptr %15, align 4
  call void @llvm.lifetime.end.p0(i64 8, ptr %17) #20
  call void @llvm.lifetime.end.p0(i64 8, ptr %16) #20
  br label %83

83:                                               ; preds = %79, %75
  call void @llvm.lifetime.end.p0(i64 8, ptr %13) #20
  call void @llvm.lifetime.end.p0(i64 8, ptr %12) #20
  call void @llvm.lifetime.end.p0(i64 8, ptr %11) #20
  call void @_ZN5faiss12DirectMapAddD1Ev(ptr noundef nonnull align 8 dereferenceable(64) %10) #20
  call void @llvm.lifetime.end.p0(i64 64, ptr %10) #20
  call void @llvm.lifetime.end.p0(i64 8, ptr %9) #20
  br label %89

84:                                               ; preds = %28
  %85 = load i64, ptr %6, align 8, !tbaa !9
  %86 = getelementptr inbounds nuw %"struct.faiss::Index", ptr %18, i32 0, i32 3
  %87 = load i64, ptr %86, align 8, !tbaa !100
  %88 = add nsw i64 %87, %85
  store i64 %88, ptr %86, align 8, !tbaa !100
  call void @_ZN5faiss12DirectMapAddD1Ev(ptr noundef nonnull align 8 dereferenceable(64) %10) #20
  call void @llvm.lifetime.end.p0(i64 64, ptr %10) #20
  call void @llvm.lifetime.end.p0(i64 8, ptr %9) #20
  ret void

89:                                               ; preds = %83
  %90 = load ptr, ptr %14, align 8
  %91 = load i32, ptr %15, align 4
  %92 = insertvalue { ptr, i32 } poison, ptr %90, 0
  %93 = insertvalue { ptr, i32 } %92, i32 %91, 1
  resume { ptr, i32 } %93
}