; Function Attrs: mustprogress uwtable
define void @_ZN5faiss8IndexIVF12add_sa_codesElPKhPKl(ptr noundef nonnull align 8 dereferenceable(265) %0, i64 noundef %1, ptr noundef %2, ptr noundef %3) unnamed_addr #0 align 2 personality ptr @__gxx_personality_v0 {
  %5 = alloca %"struct.faiss::DirectMapAdd", align 8
  %6 = getelementptr inbounds nuw i8, ptr %0, i64 48
  %7 = getelementptr inbounds nuw i8, ptr %0, i64 56
  %8 = load i64, ptr %7, align 8, !tbaa !99
  %9 = add i64 %8, -1
  %.not5.i = icmp eq i64 %9, 0
  br i1 %.not5.i, label %_ZNK5faiss15Level1Quantizer16coarse_code_sizeEv.exit, label %.lr.ph.i

.lr.ph.i:                                         ; preds = %4, %.lr.ph.i
  %.07.i = phi i64 [ %10, %.lr.ph.i ], [ 0, %4 ]
  %.046.i = phi i64 [ %11, %.lr.ph.i ], [ %9, %4 ]
  %10 = add nuw nsw i64 %.07.i, 1
  %11 = lshr i64 %.046.i, 8
  %.not.i = icmp ult i64 %.046.i, 256
  br i1 %.not.i, label %_ZNK5faiss15Level1Quantizer16coarse_code_sizeEv.exit, label %.lr.ph.i, !llvm.loop !102

_ZNK5faiss15Level1Quantizer16coarse_code_sizeEv.exit: ; preds = %.lr.ph.i, %4
  %.0.lcssa.i = phi i64 [ 0, %4 ], [ %10, %.lr.ph.i ]
  call void @llvm.lifetime.start.p0(i64 64, ptr nonnull %5) #27
  %12 = getelementptr inbounds nuw i8, ptr %0, i64 176
  call void @_ZN5faiss12DirectMapAddC1ERNS_9DirectMapEmPKl(ptr noundef nonnull align 8 dereferenceable(64) %5, ptr noundef nonnull align 8 dereferenceable(88) %12, i64 noundef %1, ptr noundef %3)
  %13 = icmp sgt i64 %1, 0
  br i1 %13, label %.lr.ph, label %._crit_edge

.lr.ph:                                           ; preds = %_ZNK5faiss15Level1Quantizer16coarse_code_sizeEv.exit
  %14 = getelementptr inbounds nuw i8, ptr %0, i64 160
  %.not = icmp eq ptr %3, null
  %15 = getelementptr inbounds nuw i8, ptr %0, i64 16
  %16 = getelementptr inbounds nuw i8, ptr %0, i64 144
  br i1 %.not, label %.lr.ph.split.us, label %.lr.ph.split

.lr.ph.split.us:                                  ; preds = %.lr.ph, %32
  %.028.us = phi i64 [ %33, %32 ], [ 0, %.lr.ph ]
  %17 = load i64, ptr %14, align 8, !tbaa !103
  %18 = add i64 %17, %.0.lcssa.i
  %19 = mul i64 %18, %.028.us
  %20 = getelementptr inbounds nuw i8, ptr %2, i64 %19
  %21 = invoke noundef i64 @_ZNK5faiss15Level1Quantizer13decode_listnoEPKh(ptr noundef nonnull align 8 dereferenceable(80) %6, ptr noundef %20)
          to label %22 unwind label %.split.us

22:                                               ; preds = %.lr.ph.split.us
  %23 = load i64, ptr %15, align 8, !tbaa !98
  %24 = add nsw i64 %23, %.028.us
  %25 = load ptr, ptr %16, align 8, !tbaa !97
  %26 = getelementptr inbounds nuw i8, ptr %20, i64 %.0.lcssa.i
  %27 = load ptr, ptr %25, align 8, !tbaa !14
  %28 = getelementptr inbounds nuw i8, ptr %27, i64 96
  %29 = load ptr, ptr %28, align 8
  %30 = invoke noundef i64 %29(ptr noundef nonnull align 8 dereferenceable(25) %25, i64 noundef %21, i64 noundef %24, ptr noundef %26, ptr noundef null)
          to label %31 unwind label %.split30.us

31:                                               ; preds = %22
  invoke void @_ZN5faiss12DirectMapAdd3addEmlm(ptr noundef nonnull align 8 dereferenceable(64) %5, i64 noundef %.028.us, i64 noundef %21, i64 noundef %30)
          to label %32 unwind label %.split30.us

32:                                               ; preds = %31
  %33 = add nuw nsw i64 %.028.us, 1
  %exitcond33.not = icmp eq i64 %33, %1
  br i1 %exitcond33.not, label %._crit_edge, label %.lr.ph.split.us, !llvm.loop !110

.split.us:                                        ; preds = %.lr.ph.split.us
  %34 = landingpad { ptr, i32 }
          cleanup
  br label %58

.split30.us:                                      ; preds = %31, %22
  %35 = landingpad { ptr, i32 }
          cleanup
  br label %58

._crit_edge:                                      ; preds = %54, %32, %_ZNK5faiss15Level1Quantizer16coarse_code_sizeEv.exit
  %36 = getelementptr inbounds nuw i8, ptr %0, i64 16
  %37 = load i64, ptr %36, align 8, !tbaa !98
  %38 = add nsw i64 %37, %1
  store i64 %38, ptr %36, align 8, !tbaa !98
  call void @_ZN5faiss12DirectMapAddD1Ev(ptr noundef nonnull align 8 dereferenceable(64) %5) #27
  call void @llvm.lifetime.end.p0(i64 64, ptr nonnull %5) #27
  ret void

.lr.ph.split:                                     ; preds = %.lr.ph, %54
  %.028 = phi i64 [ %55, %54 ], [ 0, %.lr.ph ]
  %39 = load i64, ptr %14, align 8, !tbaa !103
  %40 = add i64 %39, %.0.lcssa.i
  %41 = mul i64 %40, %.028
  %42 = getelementptr inbounds nuw i8, ptr %2, i64 %41
  %43 = invoke noundef i64 @_ZNK5faiss15Level1Quantizer13decode_listnoEPKh(ptr noundef nonnull align 8 dereferenceable(80) %6, ptr noundef %42)
          to label %44 unwind label %.split

44:                                               ; preds = %.lr.ph.split
  %45 = getelementptr inbounds nuw i64, ptr %3, i64 %.028
  %46 = load i64, ptr %45, align 8, !tbaa !19
  %47 = load ptr, ptr %16, align 8, !tbaa !97
  %48 = getelementptr inbounds nuw i8, ptr %42, i64 %.0.lcssa.i
  %49 = load ptr, ptr %47, align 8, !tbaa !14
  %50 = getelementptr inbounds nuw i8, ptr %49, i64 96
  %51 = load ptr, ptr %50, align 8
  %52 = invoke noundef i64 %51(ptr noundef nonnull align 8 dereferenceable(25) %47, i64 noundef %43, i64 noundef %46, ptr noundef %48, ptr noundef null)
          to label %53 unwind label %.split30

53:                                               ; preds = %44
  invoke void @_ZN5faiss12DirectMapAdd3addEmlm(ptr noundef nonnull align 8 dereferenceable(64) %5, i64 noundef %.028, i64 noundef %43, i64 noundef %52)
          to label %54 unwind label %.split30

54:                                               ; preds = %53
  %55 = add nuw nsw i64 %.028, 1
  %exitcond.not = icmp eq i64 %55, %1
  br i1 %exitcond.not, label %._crit_edge, label %.lr.ph.split, !llvm.loop !110

.split:                                           ; preds = %.lr.ph.split
  %56 = landingpad { ptr, i32 }
          cleanup
  br label %58

.split30:                                         ; preds = %53, %44
  %57 = landingpad { ptr, i32 }
          cleanup
  br label %58

58:                                               ; preds = %.split30, %.split30.us, %.split, %.split.us
  %.pn = phi { ptr, i32 } [ %56, %.split ], [ %34, %.split.us ], [ %57, %.split30 ], [ %35, %.split30.us ]
  call void @_ZN5faiss12DirectMapAddD1Ev(ptr noundef nonnull align 8 dereferenceable(64) %5) #27
  call void @llvm.lifetime.end.p0(i64 64, ptr nonnull %5) #27
  resume { ptr, i32 } %.pn
}